; Function Attrs: mustprogress uwtable
define dso_local void @_ZN28btSoftSoftCollisionAlgorithm16processCollisionEPK24btCollisionObjectWrapperS2_RK16btDispatcherInfoP16btManifoldResult(ptr nonnull readnone align 8 captures(none) %0, ptr noundef readonly captures(none) %1, ptr noundef readonly captures(none) %2, ptr nonnull readnone align 8 captures(none) %3, ptr readnone captures(none) %4) unnamed_addr #0 align 2 {
  %6 = getelementptr inbounds nuw i8, ptr %1, i64 16
  %7 = load ptr, ptr %6, align 8, !tbaa !7
  %8 = getelementptr inbounds nuw i8, ptr %2, i64 16
  %9 = load ptr, ptr %8, align 8, !tbaa !7
  %10 = getelementptr inbounds nuw i8, ptr %7, i64 408
  %11 = load ptr, ptr %10, align 8, !tbaa !16
  %12 = load ptr, ptr %11, align 8, !tbaa !4
  %13 = getelementptr inbounds nuw i8, ptr %12, i64 80
  %14 = load ptr, ptr %13, align 8
  tail call void %14(ptr noundef nonnull align 8 dereferenceable(20) %11, ptr noundef nonnull %7, ptr noundef %9)
  ret void
}